target datalayout = "e-m:e-p270:32:32-p271:32:32-p272:64:64-i64:64-i128:128-f80:128-n8:16:32:64-S128"
target triple = "x86_64-pc-linux-gnu"

%class.ext_numeral = type { i32, %class.rational }
%class.rational = type { %class.mpq }
%class.mpq = type { %class.mpz, %class.mpz }
%class.mpz = type { i32, i8, ptr }
%class.old_interval = type { ptr, %class.ext_numeral, %class.ext_numeral, i8, i8, ptr, ptr }

; Function Attrs: inlinehint mustprogress nounwind uwtable
define linkonce_odr hidden void @_ZSt4swapIP8mpz_cellENSt9enable_ifIXsr6__and_ISt6__not_ISt15__is_tuple_likeIT_EESt21is_move_constructibleIS5_ESt18is_move_assignableIS5_EEE5valueEvE4typeERS5_SE_(ptr noundef nonnull align 8 dereferenceable(8) %0, ptr noundef nonnull align 8 dereferenceable(8) %1) #8 comdat {
  %3 = alloca ptr, align 8
  %4 = alloca ptr, align 8
  %5 = alloca ptr, align 8
  store ptr %0, ptr %3, align 8, !tbaa !70
  store ptr %1, ptr %4, align 8, !tbaa !70
  call void @llvm.lifetime.start.p0(i64 8, ptr %5) #3
  %6 = load ptr, ptr %3, align 8, !tbaa !70
  %7 = load ptr, ptr %6, align 8, !tbaa !72
  store ptr %7, ptr %5, align 8, !tbaa !72
  %8 = load ptr, ptr %4, align 8, !tbaa !70
  %9 = load ptr, ptr %8, align 8, !tbaa !72
  %10 = load ptr, ptr %3, align 8, !tbaa !70
  store ptr %9, ptr %10, align 8, !tbaa !72
  %11 = load ptr, ptr %5, align 8, !tbaa !72
  %12 = load ptr, ptr %4, align 8, !tbaa !70
  store ptr %11, ptr %12, align 8, !tbaa !72
  call void @llvm.lifetime.end.p0(i64 8, ptr %5) #3
  ret void
}

; Function Attrs: inlinehint mustprogress nounwind uwtable
define linkonce_odr void @_ZSt4swapIiENSt9enable_ifIXsr6__and_ISt6__not_ISt15__is_tuple_likeIT_EESt21is_move_constructibleIS3_ESt18is_move_assignableIS3_EEE5valueEvE4typeERS3_SC_(ptr noundef nonnull align 4 dereferenceable(4) %0, ptr noundef nonnull align 4 dereferenceable(4) %1) #8 comdat {
  %3 = alloca ptr, align 8
  %4 = alloca ptr, align 8
  %5 = alloca i32, align 4
  store ptr %0, ptr %3, align 8, !tbaa !68
  store ptr %1, ptr %4, align 8, !tbaa !68
  call void @llvm.lifetime.start.p0(i64 4, ptr %5) #3
  %6 = load ptr, ptr %3, align 8, !tbaa !68
  %7 = load i32, ptr %6, align 4, !tbaa !18
  store i32 %7, ptr %5, align 4, !tbaa !18
  %8 = load ptr, ptr %4, align 8, !tbaa !68
  %9 = load i32, ptr %8, align 4, !tbaa !18
  %10 = load ptr, ptr %3, align 8, !tbaa !68
  store i32 %9, ptr %10, align 4, !tbaa !18
  %11 = load i32, ptr %5, align 4, !tbaa !18
  %12 = load ptr, ptr %4, align 8, !tbaa !68
  store i32 %11, ptr %12, align 4, !tbaa !18
  call void @llvm.lifetime.end.p0(i64 4, ptr %5) #3
  ret void
}

; Function Attrs: mustprogress nounwind uwtable
define linkonce_odr hidden void @_ZN3mpz4swapERS_(ptr noundef nonnull align 8 dereferenceable(16) %0, ptr noundef nonnull align 8 dereferenceable(16) %1) #5 comdat align 2 {
  %3 = alloca ptr, align 8
  %4 = alloca ptr, align 8
  %5 = alloca i32, align 4
  %6 = alloca i32, align 4
  store ptr %0, ptr %3, align 8, !tbaa !62
  store ptr %1, ptr %4, align 8, !tbaa !62
  %7 = load ptr, ptr %3, align 8
  %8 = getelementptr inbounds nuw %class.mpz, ptr %7, i32 0, i32 0
  %9 = load ptr, ptr %4, align 8, !tbaa !62
  %10 = getelementptr inbounds nuw %class.mpz, ptr %9, i32 0, i32 0
  call void @_ZSt4swapIiENSt9enable_ifIXsr6__and_ISt6__not_ISt15__is_tuple_likeIT_EESt21is_move_constructibleIS3_ESt18is_move_assignableIS3_EEE5valueEvE4typeERS3_SC_(ptr noundef nonnull align 4 dereferenceable(4) %8, ptr noundef nonnull align 4 dereferenceable(4) %10) #3
  %11 = getelementptr inbounds nuw %class.mpz, ptr %7, i32 0, i32 2
  %12 = load ptr, ptr %4, align 8, !tbaa !62
  %13 = getelementptr inbounds nuw %class.mpz, ptr %12, i32 0, i32 2
  call void @_ZSt4swapIP8mpz_cellENSt9enable_ifIXsr6__and_ISt6__not_ISt15__is_tuple_likeIT_EESt21is_move_constructibleIS5_ESt18is_move_assignableIS5_EEE5valueEvE4typeERS5_SE_(ptr noundef nonnull align 8 dereferenceable(8) %11, ptr noundef nonnull align 8 dereferenceable(8) %13) #3
  call void @llvm.lifetime.start.p0(i64 4, ptr %5) #3
  %14 = getelementptr inbounds nuw %class.mpz, ptr %7, i32 0, i32 1
  %15 = load i8, ptr %14, align 4
  %16 = lshr i8 %15, 1
  %17 = and i8 %16, 1
  %18 = zext i8 %17 to i32
  store i32 %18, ptr %5, align 4, !tbaa !18
  %19 = load ptr, ptr %4, align 8, !tbaa !62
  %20 = getelementptr inbounds nuw %class.mpz, ptr %19, i32 0, i32 1
  %21 = load i8, ptr %20, align 4
  %22 = lshr i8 %21, 1
  %23 = and i8 %22, 1
  %24 = zext i8 %23 to i32
  %25 = getelementptr inbounds nuw %class.mpz, ptr %7, i32 0, i32 1
  %26 = trunc i32 %24 to i8
  %27 = load i8, ptr %25, align 4
  %28 = and i8 %26, 1
  %29 = shl i8 %28, 1
  %30 = and i8 %27, -3
  %31 = or i8 %30, %29
  store i8 %31, ptr %25, align 4
  %32 = load i32, ptr %5, align 4, !tbaa !18
  %33 = load ptr, ptr %4, align 8, !tbaa !62
  %34 = getelementptr inbounds nuw %class.mpz, ptr %33, i32 0, i32 1
  %35 = trunc i32 %32 to i8
  %36 = load i8, ptr %34, align 4
  %37 = and i8 %35, 1
  %38 = shl i8 %37, 1
  %39 = and i8 %36, -3
  %40 = or i8 %39, %38
  store i8 %40, ptr %34, align 4
  call void @llvm.lifetime.start.p0(i64 4, ptr %6) #3
  %41 = getelementptr inbounds nuw %class.mpz, ptr %7, i32 0, i32 1
  %42 = load i8, ptr %41, align 4
  %43 = and i8 %42, 1
  %44 = zext i8 %43 to i32
  store i32 %44, ptr %6, align 4, !tbaa !18
  %45 = load ptr, ptr %4, align 8, !tbaa !62
  %46 = getelementptr inbounds nuw %class.mpz, ptr %45, i32 0, i32 1
  %47 = load i8, ptr %46, align 4
  %48 = and i8 %47, 1
  %49 = zext i8 %48 to i32
  %50 = getelementptr inbounds nuw %class.mpz, ptr %7, i32 0, i32 1
  %51 = trunc i32 %49 to i8
  %52 = load i8, ptr %50, align 4
  %53 = and i8 %51, 1
  %54 = and i8 %52, -2
  %55 = or i8 %54, %53
  store i8 %55, ptr %50, align 4
  %56 = load i32, ptr %6, align 4, !tbaa !18
  %57 = load ptr, ptr %4, align 8, !tbaa !62
  %58 = getelementptr inbounds nuw %class.mpz, ptr %57, i32 0, i32 1
  %59 = trunc i32 %56 to i8
  %60 = load i8, ptr %58, align 4
  %61 = and i8 %59, 1
  %62 = and i8 %60, -2
  %63 = or i8 %62, %61
  store i8 %63, ptr %58, align 4
  call void @llvm.lifetime.end.p0(i64 4, ptr %6) #3
  call void @llvm.lifetime.end.p0(i64 4, ptr %5) #3
  ret void
}

; Function Attrs: mustprogress nounwind uwtable
define linkonce_odr hidden noundef nonnull align 8 dereferenceable(16) ptr @_ZN3mpzaSEOS_(ptr noundef nonnull align 8 dereferenceable(16) %0, ptr noundef nonnull align 8 dereferenceable(16) %1) #5 comdat align 2 {
  %3 = alloca ptr, align 8
  %4 = alloca ptr, align 8
  store ptr %0, ptr %3, align 8, !tbaa !62
  store ptr %1, ptr %4, align 8, !tbaa !62
  %5 = load ptr, ptr %3, align 8
  %6 = load ptr, ptr %4, align 8, !tbaa !62
  call void @_ZN3mpz4swapERS_(ptr noundef nonnull align 8 dereferenceable(16) %5, ptr noundef nonnull align 8 dereferenceable(16) %6) #3
  ret ptr %5
}

; Function Attrs: mustprogress nounwind uwtable
define linkonce_odr hidden noundef nonnull align 8 dereferenceable(32) ptr @_ZN3mpqaSEOS_(ptr noundef nonnull align 8 dereferenceable(32) %0, ptr noundef nonnull align 8 dereferenceable(32) %1) #5 comdat align 2 {
  %3 = alloca ptr, align 8
  %4 = alloca ptr, align 8
  store ptr %0, ptr %3, align 8, !tbaa !60
  store ptr %1, ptr %4, align 8, !tbaa !60
  %5 = load ptr, ptr %3, align 8
  %6 = getelementptr inbounds nuw %class.mpq, ptr %5, i32 0, i32 0
  %7 = load ptr, ptr %4, align 8, !tbaa !60
  %8 = getelementptr inbounds nuw %class.mpq, ptr %7, i32 0, i32 0
  %9 = call noundef nonnull align 8 dereferenceable(16) ptr @_ZN3mpzaSEOS_(ptr noundef nonnull align 8 dereferenceable(16) %6, ptr noundef nonnull align 8 dereferenceable(16) %8) #3
  %10 = getelementptr inbounds nuw %class.mpq, ptr %5, i32 0, i32 1
  %11 = load ptr, ptr %4, align 8, !tbaa !60
  %12 = getelementptr inbounds nuw %class.mpq, ptr %11, i32 0, i32 1
  %13 = call noundef nonnull align 8 dereferenceable(16) ptr @_ZN3mpzaSEOS_(ptr noundef nonnull align 8 dereferenceable(16) %10, ptr noundef nonnull align 8 dereferenceable(16) %12) #3
  ret ptr %5
}

; Function Attrs: mustprogress nounwind uwtable
define linkonce_odr hidden noundef nonnull align 8 dereferenceable(32) ptr @_ZN8rationalaSEOS_(ptr noundef nonnull align 8 dereferenceable(32) %0, ptr noundef nonnull align 8 dereferenceable(32) %1) #5 comdat align 2 {
  %3 = alloca ptr, align 8
  %4 = alloca ptr, align 8
  store ptr %0, ptr %3, align 8, !tbaa !16
  store ptr %1, ptr %4, align 8, !tbaa !16
  %5 = load ptr, ptr %3, align 8
  %6 = getelementptr inbounds nuw %class.rational, ptr %5, i32 0, i32 0
  %7 = load ptr, ptr %4, align 8, !tbaa !16
  %8 = getelementptr inbounds nuw %class.rational, ptr %7, i32 0, i32 0
  %9 = call noundef nonnull align 8 dereferenceable(32) ptr @_ZN3mpqaSEOS_(ptr noundef nonnull align 8 dereferenceable(32) %6, ptr noundef nonnull align 8 dereferenceable(32) %8) #3
  ret ptr %5
}

; Function Attrs: inlinehint mustprogress nounwind uwtable
define linkonce_odr hidden noundef nonnull align 8 dereferenceable(40) ptr @_ZN11ext_numeralaSEOS_(ptr noundef nonnull align 8 dereferenceable(40) %0, ptr noundef nonnull align 8 dereferenceable(40) %1) #8 comdat align 2 {
  %3 = alloca ptr, align 8
  %4 = alloca ptr, align 8
  store ptr %0, ptr %3, align 8, !tbaa !3
  store ptr %1, ptr %4, align 8, !tbaa !3
  %5 = load ptr, ptr %3, align 8
  %6 = load ptr, ptr %4, align 8, !tbaa !3
  %7 = getelementptr inbounds nuw %class.ext_numeral, ptr %6, i32 0, i32 0
  %8 = load i32, ptr %7, align 8, !tbaa !8
  %9 = getelementptr inbounds nuw %class.ext_numeral, ptr %5, i32 0, i32 0
  store i32 %8, ptr %9, align 8, !tbaa !8
  %10 = getelementptr inbounds nuw %class.ext_numeral, ptr %5, i32 0, i32 1
  %11 = load ptr, ptr %4, align 8, !tbaa !3
  %12 = getelementptr inbounds nuw %class.ext_numeral, ptr %11, i32 0, i32 1
  %13 = call noundef nonnull align 8 dereferenceable(32) ptr @_ZN8rationalaSEOS_(ptr noundef nonnull align 8 dereferenceable(32) %10, ptr noundef nonnull align 8 dereferenceable(32) %12) #3
  ret ptr %5
}

; Function Attrs: mustprogress nounwind uwtable
define hidden noundef nonnull align 8 dereferenceable(112) ptr @_ZN12old_intervalaSEOS_(ptr noundef nonnull align 8 dereferenceable(112) %0, ptr noundef nonnull align 8 dereferenceable(112) %1) #5 align 2 {
  %3 = alloca ptr, align 8
  %4 = alloca ptr, align 8
  store ptr %0, ptr %3, align 8, !tbaa !27
  store ptr %1, ptr %4, align 8, !tbaa !27
  %5 = load ptr, ptr %3, align 8
  %6 = load ptr, ptr %4, align 8, !tbaa !27
  %7 = getelementptr inbounds nuw %class.old_interval, ptr %6, i32 0, i32 1
  %8 = getelementptr inbounds nuw %class.old_interval, ptr %5, i32 0, i32 1
  %9 = call noundef nonnull align 8 dereferenceable(40) ptr @_ZN11ext_numeralaSEOS_(ptr noundef nonnull align 8 dereferenceable(40) %8, ptr noundef nonnull align 8 dereferenceable(40) %7) #3
  %10 = load ptr, ptr %4, align 8, !tbaa !27
  %11 = getelementptr inbounds nuw %class.old_interval, ptr %10, i32 0, i32 2
  %12 = getelementptr inbounds nuw %class.old_interval, ptr %5, i32 0, i32 2
  %13 = call noundef nonnull align 8 dereferenceable(40) ptr @_ZN11ext_numeralaSEOS_(ptr noundef nonnull align 8 dereferenceable(40) %12, ptr noundef nonnull align 8 dereferenceable(40) %11) #3
  %14 = load ptr, ptr %4, align 8, !tbaa !27
  %15 = getelementptr inbounds nuw %class.old_interval, ptr %14, i32 0, i32 3
  %16 = load i8, ptr %15, align 8, !tbaa !31, !range !39, !noundef !40
  %17 = trunc i8 %16 to i1
  %18 = getelementptr inbounds nuw %class.old_interval, ptr %5, i32 0, i32 3
  %19 = zext i1 %17 to i8
  store i8 %19, ptr %18, align 8, !tbaa !31
  %20 = load ptr, ptr %4, align 8, !tbaa !27
  %21 = getelementptr inbounds nuw %class.old_interval, ptr %20, i32 0, i32 4
  %22 = load i8, ptr %21, align 1, !tbaa !35, !range !39, !noundef !40
  %23 = trunc i8 %22 to i1
  %24 = getelementptr inbounds nuw %class.old_interval, ptr %5, i32 0, i32 4
  %25 = zext i1 %23 to i8
  store i8 %25, ptr %24, align 1, !tbaa !35
  %26 = load ptr, ptr %4, align 8, !tbaa !27
  %27 = getelementptr inbounds nuw %class.old_interval, ptr %26, i32 0, i32 5
  %28 = load ptr, ptr %27, align 8, !tbaa !36
  %29 = getelementptr inbounds nuw %class.old_interval, ptr %5, i32 0, i32 5
  store ptr %28, ptr %29, align 8, !tbaa !36
  %30 = load ptr, ptr %4, align 8, !tbaa !27
  %31 = getelementptr inbounds nuw %class.old_interval, ptr %30, i32 0, i32 6
  %32 = load ptr, ptr %31, align 8, !tbaa !37
  %33 = getelementptr inbounds nuw %class.old_interval, ptr %5, i32 0, i32 6
  store ptr %32, ptr %33, align 8, !tbaa !37
  ret ptr %5
}