; Function Attrs: mustprogress nofree norecurse nosync nounwind willreturn memory(argmem: readwrite) uwtable
define hidden noundef nonnull align 8 dereferenceable(112) ptr @_ZN12old_intervalaSEOS_(ptr noundef nonnull returned align 8 captures(ret: address, provenance) dereferenceable(112) initializes((8, 12), (48, 52), (88, 90), (96, 112)) %0, ptr noundef nonnull align 8 captures(none) dereferenceable(112) %1) local_unnamed_addr #7 align 2 {
  %3 = getelementptr inbounds nuw i8, ptr %1, i64 8
  %4 = getelementptr inbounds nuw i8, ptr %0, i64 8
  %5 = load i32, ptr %3, align 8, !tbaa !3
  store i32 %5, ptr %4, align 8, !tbaa !3
  %6 = getelementptr inbounds nuw i8, ptr %0, i64 16
  %7 = getelementptr inbounds nuw i8, ptr %1, i64 16
  %8 = load i32, ptr %6, align 8, !tbaa !21
  %9 = load i32, ptr %7, align 8, !tbaa !21
  store i32 %9, ptr %6, align 8, !tbaa !21
  store i32 %8, ptr %7, align 8, !tbaa !21
  %10 = getelementptr inbounds nuw i8, ptr %0, i64 24
  %11 = getelementptr inbounds nuw i8, ptr %1, i64 24
  %12 = load ptr, ptr %10, align 8, !tbaa !22
  %13 = load ptr, ptr %11, align 8, !tbaa !22
  store ptr %13, ptr %10, align 8, !tbaa !22
  store ptr %12, ptr %11, align 8, !tbaa !22
  %14 = getelementptr inbounds nuw i8, ptr %0, i64 20
  %15 = load i8, ptr %14, align 4
  %16 = and i8 %15, 2
  %17 = getelementptr inbounds nuw i8, ptr %1, i64 20
  %18 = load i8, ptr %17, align 4
  %19 = and i8 %18, 2
  %20 = and i8 %15, -3
  %21 = or disjoint i8 %19, %20
  store i8 %21, ptr %14, align 4
  %22 = load i8, ptr %17, align 4
  %23 = and i8 %22, -3
  %24 = or disjoint i8 %23, %16
  store i8 %24, ptr %17, align 4
  %25 = load i8, ptr %14, align 4
  %26 = and i8 %25, 1
  %27 = and i8 %22, 1
  %28 = and i8 %25, -2
  %29 = or disjoint i8 %28, %27
  store i8 %29, ptr %14, align 4
  %30 = load i8, ptr %17, align 4
  %31 = and i8 %30, -2
  %32 = or disjoint i8 %31, %26
  store i8 %32, ptr %17, align 4
  %33 = getelementptr inbounds nuw i8, ptr %0, i64 32
  %34 = getelementptr inbounds nuw i8, ptr %1, i64 32
  %35 = load i32, ptr %33, align 8, !tbaa !21
  %36 = load i32, ptr %34, align 8, !tbaa !21
  store i32 %36, ptr %33, align 8, !tbaa !21
  store i32 %35, ptr %34, align 8, !tbaa !21
  %37 = getelementptr inbounds nuw i8, ptr %0, i64 40
  %38 = getelementptr inbounds nuw i8, ptr %1, i64 40
  %39 = load ptr, ptr %37, align 8, !tbaa !22
  %40 = load ptr, ptr %38, align 8, !tbaa !22
  store ptr %40, ptr %37, align 8, !tbaa !22
  store ptr %39, ptr %38, align 8, !tbaa !22
  %41 = getelementptr inbounds nuw i8, ptr %0, i64 36
  %42 = load i8, ptr %41, align 4
  %43 = and i8 %42, 2
  %44 = getelementptr inbounds nuw i8, ptr %1, i64 36
  %45 = load i8, ptr %44, align 4
  %46 = and i8 %45, 2
  %47 = and i8 %42, -3
  %48 = or disjoint i8 %46, %47
  store i8 %48, ptr %41, align 4
  %49 = load i8, ptr %44, align 4
  %50 = and i8 %49, -3
  %51 = or disjoint i8 %50, %43
  store i8 %51, ptr %44, align 4
  %52 = load i8, ptr %41, align 4
  %53 = and i8 %52, 1
  %54 = and i8 %49, 1
  %55 = and i8 %52, -2
  %56 = or disjoint i8 %55, %54
  store i8 %56, ptr %41, align 4
  %57 = load i8, ptr %44, align 4
  %58 = and i8 %57, -2
  %59 = or disjoint i8 %58, %53
  store i8 %59, ptr %44, align 4
  %60 = getelementptr inbounds nuw i8, ptr %1, i64 48
  %61 = getelementptr inbounds nuw i8, ptr %0, i64 48
  %62 = load i32, ptr %60, align 8, !tbaa !3
  store i32 %62, ptr %61, align 8, !tbaa !3
  %63 = getelementptr inbounds nuw i8, ptr %0, i64 56
  %64 = getelementptr inbounds nuw i8, ptr %1, i64 56
  %65 = load i32, ptr %63, align 8, !tbaa !21
  %66 = load i32, ptr %64, align 8, !tbaa !21
  store i32 %66, ptr %63, align 8, !tbaa !21
  store i32 %65, ptr %64, align 8, !tbaa !21
  %67 = getelementptr inbounds nuw i8, ptr %0, i64 64
  %68 = getelementptr inbounds nuw i8, ptr %1, i64 64
  %69 = load ptr, ptr %67, align 8, !tbaa !22
  %70 = load ptr, ptr %68, align 8, !tbaa !22
  store ptr %70, ptr %67, align 8, !tbaa !22
  store ptr %69, ptr %68, align 8, !tbaa !22
  %71 = getelementptr inbounds nuw i8, ptr %0, i64 60
  %72 = load i8, ptr %71, align 4
  %73 = and i8 %72, 2
  %74 = getelementptr inbounds nuw i8, ptr %1, i64 60
  %75 = load i8, ptr %74, align 4
  %76 = and i8 %75, 2
  %77 = and i8 %72, -3
  %78 = or disjoint i8 %76, %77
  store i8 %78, ptr %71, align 4
  %79 = load i8, ptr %74, align 4
  %80 = and i8 %79, -3
  %81 = or disjoint i8 %80, %73
  store i8 %81, ptr %74, align 4
  %82 = load i8, ptr %71, align 4
  %83 = and i8 %82, 1
  %84 = and i8 %79, 1
  %85 = and i8 %82, -2
  %86 = or disjoint i8 %85, %84
  store i8 %86, ptr %71, align 4
  %87 = load i8, ptr %74, align 4
  %88 = and i8 %87, -2
  %89 = or disjoint i8 %88, %83
  store i8 %89, ptr %74, align 4
  %90 = getelementptr inbounds nuw i8, ptr %0, i64 72
  %91 = getelementptr inbounds nuw i8, ptr %1, i64 72
  %92 = load i32, ptr %90, align 8, !tbaa !21
  %93 = load i32, ptr %91, align 8, !tbaa !21
  store i32 %93, ptr %90, align 8, !tbaa !21
  store i32 %92, ptr %91, align 8, !tbaa !21
  %94 = getelementptr inbounds nuw i8, ptr %0, i64 80
  %95 = getelementptr inbounds nuw i8, ptr %1, i64 80
  %96 = load ptr, ptr %94, align 8, !tbaa !22
  %97 = load ptr, ptr %95, align 8, !tbaa !22
  store ptr %97, ptr %94, align 8, !tbaa !22
  store ptr %96, ptr %95, align 8, !tbaa !22
  %98 = getelementptr inbounds nuw i8, ptr %0, i64 76
  %99 = load i8, ptr %98, align 4
  %100 = and i8 %99, 2
  %101 = getelementptr inbounds nuw i8, ptr %1, i64 76
  %102 = load i8, ptr %101, align 4
  %103 = and i8 %102, 2
  %104 = and i8 %99, -3
  %105 = or disjoint i8 %103, %104
  store i8 %105, ptr %98, align 4
  %106 = load i8, ptr %101, align 4
  %107 = and i8 %106, -3
  %108 = or disjoint i8 %107, %100
  store i8 %108, ptr %101, align 4
  %109 = load i8, ptr %98, align 4
  %110 = and i8 %109, 1
  %111 = and i8 %106, 1
  %112 = and i8 %109, -2
  %113 = or disjoint i8 %112, %111
  store i8 %113, ptr %98, align 4
  %114 = load i8, ptr %101, align 4
  %115 = and i8 %114, -2
  %116 = or disjoint i8 %115, %110
  store i8 %116, ptr %101, align 4
  %117 = getelementptr inbounds nuw i8, ptr %1, i64 88
  %118 = load i8, ptr %117, align 8, !tbaa !32, !range !39, !noundef !40
  %119 = getelementptr inbounds nuw i8, ptr %0, i64 88
  store i8 %118, ptr %119, align 8, !tbaa !32
  %120 = getelementptr inbounds nuw i8, ptr %1, i64 89
  %121 = load i8, ptr %120, align 1, !tbaa !36, !range !39, !noundef !40
  %122 = getelementptr inbounds nuw i8, ptr %0, i64 89
  store i8 %121, ptr %122, align 1, !tbaa !36
  %123 = getelementptr inbounds nuw i8, ptr %1, i64 96
  %124 = load ptr, ptr %123, align 8, !tbaa !37
  %125 = getelementptr inbounds nuw i8, ptr %0, i64 96
  store ptr %124, ptr %125, align 8, !tbaa !37
  %126 = getelementptr inbounds nuw i8, ptr %1, i64 104
  %127 = load ptr, ptr %126, align 8, !tbaa !38
  %128 = getelementptr inbounds nuw i8, ptr %0, i64 104
  store ptr %127, ptr %128, align 8, !tbaa !38
  ret ptr %0
}